c__builtin__
set
p0
((lp1
Vconcept
p2
aVmanaged
p3
aVforget
p4
aVreviewers
p5
aVglobal
p6
aVatmosphere
p7
aVfelt
p8
aVchewable
p9
aVmanager
p10
aVugh
p11
aVresisted
p12
aVgo
p13
aVbarbecue
p14
aVappetite
p15
aVhate
p16
aVissues
p17
aVseemed
p18
aVbuy
p19
aVcrawfordsville
p20
aVdisgusting
p21
aVanswered
p22
aVfinally
p23
aVdissatisfied
p24
aVhelps
p25
aVsmile
p26
aVsorry
p27
aVinclude
p28
aVmidwest
p29
aVfriendly
p30
aVsent
p31
aVingredient
p32
aVpuffs
p33
aVupdated
p34
aVstring
p35
aVsitting
p36
aVfar
p37
aVpuffy
p38
aVfav
p39
aVeggrolls
p40
aVchoice
p41
aVaware
p42
aVballs
p43
aVevery
p44
aVyellow
p45
aVawful
p46
aVramen
p47
aVoverstock
p48
aVminute
p49
aVbiceps
p50
aVheaven
p51
aVimpressive
p52
aVtear
p53
aVdig
p54
aVcompanies
p55
aVcolors
p56
aVlarge
p57
aVsettle
p58
aVquick
p59
aVnotch
p60
aVenjoy
p61
aVneighborhood
p62
aVminnesota-based
p63
aVgoodies
p64
aVtolerate
p65
aVgo..
p66
aVpast
p67
aVrate
p68
aVcost
p69
aVtraveling
p70
aVpicked
p71
aVdelivered
p72
aVbake
p73
aVspin-off
p74
aVaptly
p75
aVeven
p76
aVestablished
p77
aVde-squeak
p78
aVwide
p79
aVgiving
p80
aVcooking
p81
aVasia
p82
aVconsistently
p83
aVversion
p84
aVapologized
p85
aVgoes
p86
aVcars
p87
aVeaten
p88
aVlearned
p89
aVever
p90
aVfilled
p91
aVtold
p92
aVdisappoint
p93
aVoutgoing
p94
aVfull
p95
aVdevein
p96
aVchins
p97
aVexchange
p98
aVchangs
p99
aVandddd
p100
aVmeh
p101
aVdesired
p102
aVcoloring
p103
aVchina
p104
aVothers
p105
aValong
p106
aVinvented
p107
aVrubbery
p108
aVwait
p109
aVbox
p110
aVkids
p111
aVitems
p112
aVstretching
p113
aVreason
p114
aVprior
p115
aVamount
p116
aVbon
p117
aVpick
p118
aVusually
p119
aVopinion
p120
aVweird
p121
aVoptions
p122
aVfantastic
p123
aVdetect
p124
aVblizzard
p125
aVslices
p126
aVsuddenly
p127
aVcharge
p128
aVprefer
p129
aVreplace
p130
aVsliced
p131
aVput
p132
aVthought
p133
aVw/
p134
aVstaple
p135
aVflavors
p136
aVexciting
p137
aVeye
p138
aVtakes
p139
aVwould
p140
aV&
p141
aVovercooked
p142
aVvisit
p143
aVtwo
p144
aVtenders
p145
aVnext
p146
aValmost
p147
aVdoubt
p148
aVcall
p149
aVwondering
p150
aVrecommend
p151
aVtaken
p152
aVcram
p153
aVgreasy
p154
aVtell
p155
aVtoday
p156
aVsort
p157
aV``
p158
aVmush
p159
aVyuck
p160
aVfast-food
p161
aVmotors
p162
aVcompany
p163
aVscallions
p164
aVphone
p165
aVpecan
p166
aVadult
p167
aVexcellent
p168
aVgladly
p169
aVtearing
p170
aVeffort
p171
aVmust
p172
aVtown
p173
aVrangoon
p174
aVrice-perfect
p175
aVword
p176
aVedible
p177
aVheard
p178
aVindifference
p179
aVride
p180
aVwork
p181
aVreviews
p182
aVanywhere
p183
aVthin
p184
aVindignities
p185
aVv
p186
aVsalty
p187
aVta
p188
aVbattered
p189
aVcompare
p190
aVgive
p191
aVdays
p192
aVawesome
p193
aVslim
p194
aVtax
p195
aVconfused
p196
aV2lb
p197
aV7pm
p198
aVminimum
p199
aVchin
p200
aVsomething
p201
aVwant
p202
aVappearance
p203
aVtimes
p204
aVcharged
p205
aV!
p206
aVneeds
p207
aVawkward
p208
aVsit
p209
aVdinners
p210
aVmeans
p211
aVmenus
p212
aVamazing
p213
aVoccasionally
p214
aVsignificant
p215
aVinstead
p216
aVlukewarm
p217
aVcharging
p218
aVwatery
p219
aValternative
p220
aVentree
p221
aVokay
p222
aVtried
p223
aVmess
p224
aVoverall
p225
aVdecor
p226
aVdisgusted
p227
aVwrong
p228
aVtipped
p229
aVlay
p230
aVcoming
p231
aVchocolate-coated
p232
aVauthentic
p233
aVpopcorn
p234
aVtypes
p235
aVjiang
p236
aVremember
p237
aVmaybe
p238
aVcounter
p239
aVacknowledged
p240
aVtsao
p241
aVblandness
p242
aVeveryone
p243
aVsuggest
p244
aVworst
p245
aVorder
p246
aVtalk
p247
aVrefund
p248
aVforced
p249
aVsoggy
p250
aVhelp
p251
aVnumbers
p252
aVepinephrine
p253
aVsoon
p254
aVyears
p255
aVended
p256
aVargued
p257
aVsmiling
p258
aVstill
p259
aVtso
p260
aVgroup
p261
aV23
p262
aVsomewhere
p263
aVinteresting
p264
aV,
p265
aVactually
p266
aVbetter
p267
aVdrawback
p268
aVchoose
p269
aVcovered
p270
aVhidden
p271
aVmight
p272
aVhappened
p273
aVeventually
p274
aVgood
p275
aVreturn
p276
aVtucked
p277
aVworkout
p278
aVskewers
p279
aVscene
p280
aVmention
p281
aVszechuan
p282
aVindulge
p283
aVhunted
p284
aVday
p285
aVmystery
p286
aVeasily
p287
aVgets
p288
aVname
p289
aVprofound
p290
aValways
p291
aVuniversity
p292
aVnauseous
p293
aVfreshness
p294
aVpayed
p295
aV--
p296
aVfilling
p297
aVmcfarland
p298
aVreasonable
p299
aVfound
p300
aVwent
p301
aVbills
p302
aVside
p303
aVlast
p304
aVheavy
p305
aVlie
p306
aVcrabmeat
p307
aVdelicious
p308
aVlist
p309
aVambiance
p310
aVyeah
p311
aVkrab
p312
aVbrother
p313
aVsociety
p314
aVused
p315
aVexpect
p316
aVyear
p317
aVportland
p318
aVsaturday
p319
aVspecial
p320
aVreally
p321
aVtry
p322
aVopened
p323
aV'
p324
aVspectrum
p325
aVquality
p326
aVsince
p327
aV****
p328
aVlooking
p329
aVmay
p330
aVseriously
p331
aVmiles
p332
aVoriental
p333
aVthrifty
p334
aV7
p335
aVrangoons
p336
aVgot
p337
aVmath
p338
aVdecent-quality
p339
aVbuds
p340
aVgrease
p341
aVsub-standard
p342
aVmillion
p343
aVgreedy
p344
aVquite
p345
aVpleasant
p346
aVcompletely
p347
aVbase
p348
aVnapkins
p349
aVask
p350
aVreturning
p351
aVwanted
p352
aVcraving
p353
aVreceipts
p354
aVate
p355
aVselections
p356
aVlocations
p357
aVcould
p358
aVinexpensive
p359
aVterrible
p360
aVkeep
p361
aVtakeout
p362
aVthing
p363
aVrenew
p364
aVperson
p365
aVplace
p366
aVdue
p367
aVst
p368
aVenough
p369
aVarrived
p370
aVthink
p371
aV'd
p372
aVfirst
p373
aVchopped
p374
aVdine
p375
aValready
p376
aVfeel
p377
aVclumped
p378
aVnutritional
p379
aVprimary
p380
aVone
p381
aV10.75.
p382
aVnumber
p383
aVdone
p384
aVlol
p385
aVproposing
p386
aVbland
p387
aVsays
p388
aVarray
p389
aVkidding
p390
aVmiss
p391
aVanyone
p392
aVlittle
p393
aVchecked
p394
aVstuck
p395
aVordering
p396
aVtop
p397
aVtata
p398
aVsystem
p399
aVleast
p400
aVplentiful
p401
aVlocale
p402
aVcrappy
p403
aV2
p404
aVpleasantly
p405
aVbits
p406
aVwest
p407
aVspeaking
p408
aVlease
p409
aVshell
p410
aVstomach
p411
aVway
p412
aVpart
p413
aVx2
p414
aVashley
p415
aVbelieve
p416
aVconvinced
p417
aVboyfriend
p418
aV10
p419
aVkind
p420
aV15
p421
aVchewy
p422
aVspecials
p423
aVrequire
p424
aVzero
p425
aVpacked
p426
aVpreparation
p427
aVmatter
p428
aVappealing
p429
aVfuture
p430
aVfriend
p431
aVhot/
p432
aVaccessed
p433
aVstale
p434
aVfeeling
p435
aVlunches
p436
aVdeciding
p437
aVvacant
p438
aVtasted
p439
aVlightly
p440
aVoutstanding
p441
aVappreciate
p442
aVweekend
p443
aVcarrots
p444
aVturned
p445
aVmine
p446
aVsad
p447
aVtonight
p448
aVsay
p449
aVvalvoline
p450
aVpieces
p451
aVunlikely
p452
aVneed
p453
aVseen
p454
aVturn
p455
aVapparently
p456
aVclearly
p457
aVcontents
p458
aVratings
p459
aVdishes
p460
aVscoop
p461
aVpicken
p462
aVable
p463
aVaside
p464
aVshocked
p465
aValso
p466
aVemphasis
p467
aVtake
p468
aVmustardy
p469
aVseasonings
p470
aVpf/pw/pe
p471
aVeaither
p472
aVsure
p473
aVoppressive
p474
aVthough
p475
aVtrack
p476
aVprice
p477
aVknew
p478
aVprocure
p479
aVcoworker
p480
aVboiling
p481
aV75
p482
aVdigestive
p483
aVexperiences
p484
aVplenty
p485
aVpeppered
p486
aVnothing
p487
aVsoupy
p488
aVutensils
p489
aVsoups
p490
aVclear
p491
aVlater
p492
aVlooked
p493
aVdigress
p494
aVdefinitely
p495
aVclean
p496
aVpineapple
p497
aVguys..but
p498
aVskinny
p499
aVleft
p500
aVtypically
p501
aVreview
p502
aVcame
p503
aVquantity
p504
aVimpression
p505
aVmadison
p506
aVselection
p507
aVwayside
p508
aVcheap
p509
aVanyway
p510
aVmidwestern
p511
aVbasic
p512
aVbright
p513
aVo'hare
p514
aVbusinesses
p515
aVamer/asian
p516
aVfind
p517
aVwraps
p518
aVbusy
p519
aVmenu
p520
aVless
p521
aVstate
p522
aVunhappy
p523
aVdull
p524
aVfast-casual
p525
aVgoing
p526
aVpretty
p527
aVcombo
p528
aVfolks
p529
aV8
p530
aVbourbon
p531
aVobama
p532
aVlocal
p533
aVhope
p534
aVloved
p535
aVmeant
p536
aVhit
p537
aVasians
p538
aVget
p539
aVbeat
p540
aVhorrible
p541
aVstop
p542
aVtake-out
p543
aVunacceptable
p544
aVpocket
p545
aVjoint
p546
aVbatter
p547
aVbreast
p548
aVdespite
p549
aV;
p550
aVsecondary
p551
aVgray
p552
aVbat
p553
aVheld
p554
aVgenerally
p555
aVdoubled
p556
aVcalling
p557
aVbad
p558
aVstuff
p559
aVprocessed
p560
aVlandlord
p561
aVgrab
p562
aVdisparage
p563
aVcringe
p564
aVboneless
p565
aVrestaurants
p566
aVinsane
p567
aVignored
p568
aVomission
p569
aVfair
p570
aVcrunch
p571
aVdoughunt
p572
aVst.
p573
aVchinese-american
p574
aVbears
p575
aVresist
p576
aVsee
p577
aVdecided
p578
aVfail
p579
aVclose
p580
aVyes
p581
aVbest
p582
aVpoints
p583
aVsaid
p584
aVexpert
p585
aVattempting
p586
aVlots
p587
aVpictures
p588
aVaway
p589
aVkid-friendly
p590
aVchestnuts
p591
aVoutside
p592
aVmiguel
p593
aVclosed
p594
aVmoons
p595
aVprobably
p596
aVneither
p597
aVnumerous
p598
aVacross
p599
aVco.
p600
aVcommute
p601
aVnever
p602
aVjobs
p603
aVright
p604
aVmissing
p605
aVwo
p606
aVdeliver
p607
aVbuckets
p608
aVweak
p609
aVhowever
p610
aVwi
p611
aVbutts
p612
aVtum
p613
aVwtf
p614
aVvisited
p615
aVcoma
p616
aV(
p617
aVcome
p618
aVlegit
p619
aVimproved
p620
aVcountry
p621
aVinvited
p622
aVbarely
p623
aVcalled
p624
aVpersonal
p625
aVloudly
p626
aVgrain
p627
aVlet
p628
aVjello
p629
aVasked
p630
aVcomes
p631
aVnearby
p632
aVcomment
p633
aVliked
p634
aVflavorless
p635
aVpoint
p636
aVcolor
p637
aVca
p638
aVrather
p639
aVpos
p640
aVpop
p641
aVexpectations
p642
aVofferings
p643
aVwell-prepared
p644
aVinitiative
p645
aVlikes
p646
aVupgrades
p647
aVplaces.the
p648
aVrefill
p649
aVtrays
p650
aVspeak
p651
aV12.00
p652
aVcardboard
p653
aVdescribed
p654
aVhalf-empty
p655
aVaddition
p656
aVdecent
p657
aVvarieties
p658
aVbuffets
p659
aVthree
p660
aVtiny
p661
aV.
p662
aVmuch
p663
aVdamn
p664
aVlikewise
p665
aVupbeat
p666
aVwaste
p667
aVempty
p668
aVlocation
p669
aV'fast
p670
aVdry
p671
aVlife
p672
aVlived
p673
aVbeloved
p674
aVtasteless
p675
aVfillets
p676
aVchatted
p677
aVwalmart
p678
aVelse
p679
aVwhatever
p680
aVunderstand
p681
aVpeanuts
p682
aVprices
p683
aVabove-average
p684
aVpresent
p685
aVcase
p686
aVexception
p687
aV7-8
p688
aVunlike
p689
aVcorncobettes
p690
aVteriyaki
p691
aVstraight
p692
aVmadison/middleton
p693
aVslp
p694
aVvalue
p695
aVn't
p696
aVnear
p697
aVmany
p698
aVrent
p699
aVreal
p700
aVchanged
p701
aVhoping
p702
aVcents
p703
aVdown-to-earth
p704
aVcomplaint
p705
aVrip
p706
aVdisappointing
p707
aVblah
p708
aVskipped
p709
aVasian-american
p710
aVready
p711
aVstickers
p712
aVpar
p713
aVperhaps
p714
aVlacking
p715
aVopen
p716
aV)
p717
aVpay
p718
aVmake
p719
aVreminded
p720
aVchili-garlic
p721
aVshorter
p722
aVpiles
p723
aVanother
p724
aVamazingly
p725
aVpad
p726
aVemphasize
p727
aVbabies
p728
aVdined
p729
aVeclectic
p730
aVpatrons
p731
aVstruggling
p732
aVseveral
p733
aVpan
p734
aVyung
p735
aVweek
p736
aVfairly
p737
aVfinish
p738
aVpho
p739
aVfatty
p740
aVsingapore
p741
aVscrew
p742
aVupon
p743
aVsuburb
p744
aVmoment
p745
aVlevels
p746
aVleaps
p747
aVfavorites
p748
aVassortment
p749
aVtotally
p750
aVkid
p751
aVkept
p752
aVcondiments
p753
aVingredients
p754
aVwell
p755
aVobviously
p756
aVudon
p757
aVhispanic
p758
aVpriced
p759
aVpotstickers
p760
aValleviate
p761
aVohh
p762
aVhubby
p763
aVknow
p764
aVthings
p765
aVstores
p766
aVunemployment
p767
aVtrue
p768
aV-
p769
aVaccurate
p770
aVrotated
p771
aVcakes
p772
aVrest
p773
aVslimy
p774
aVrecollection
p775
aVthanks
p776
aVlinklater
p777
aVyep
p778
aVflavor
p779
aVlately
p780
aVyet
p781
aVafterwards
p782
aVtables
p783
aVgenerous
p784
aV$
p785
aVcup
p786
aVthinking
p787
aVease
p788
aVseems
p789
aVrosa
p790
aVimprovement
p791
aVadd
p792
aV4
p793
aVeasy
p794
aVjoke
p795
aVaccomodate
p796
aVsurprised
p797
aVopt
p798
aV...
p799
aVcustomers
p800
aVinsensitive
p801
aVaround
p802
aVspectacular
p803
aVcouple
p804
aVdark
p805
aVchicken/
p806
aVtraffic
p807
aV10.50
p808
aVmom
p809
aVdesk
p810
aVaverage
p811
aVbit
p812
aVblech
p813
aVdisappointed
p814
aVlike
p815
aVlost
p816
aVspine
p817
aVeverytime
p818
aVserves
p819
aV've
p820
aV55
p821
aVbenefit
p822
aVcontinue
p823
aVindication
p824
aVnose
p825
aVoccasions
p826
aVserved
p827
aVreasonably
p828
aVmaking
p829
aVshed
p830
aVdrop
p831
aVold
p832
aVoften
p833
aVdeal
p834
aVpeople
p835
aVdoor
p836
aVback
p837
aVdead
p838
aVpresentation
p839
aVadded
p840
aVmighty
p841
aVpricing
p842
aVliking
p843
aVbizarre
p844
aVsauces
p845
aVgross
p846
aVnear-healthy
p847
aVrecently
p848
aVmood
p849
aVbottom
p850
aVavoid
p851
aVfirecracker
p852
aVoverly
p853
aVmoon
p854
aVeverything
p855
aVlunar
p856
aVepic
p857
aV?
p858
aVovercharged
p859
aVporridge
p860
aVterms
p861
aVclaimed
p862
aVwelcome
p863
aVeating
p864
aVslight
p865
aVrefused
p866
aVaccompanied
p867
aVmemorable
p868
aVprepared
p869
aVslacker
p870
aVgarnished
p871
aVok
p872
aVworking
p873
aVanything
p874
aVoh
p875
aVdelish
p876
aVfavorite
p877
aVmeal
p878
aVhinge
p879
aVdinner
p880
aVounce
p881
aVplus
p882
aVstand
p883
aVsupposed
p884
aVgo-to
p885
aVwontons
p886
aVxoxox
p887
aVgarbage
p888
aVwasting
p889
aVinformed
p890
aVwithin
p891
aVprofession
p892
aVframed
p893
aVcomplaints
p894
aVgoldilocks
p895
aVlieu
p896
aVlesson
p897
aVquickly
p898
aVlob
p899
aVimpressed
p900
aVjockey
p901
aV4.17
p902
aV..
p903
aVdeveined
p904
aVassumed
p905
aVsupport
p906
aVapps
p907
aVspecifically
p908
aV1/8th
p909
aVstart
p910
aVlot
p911
aVforward
p912
aV:
p913
aVon-line
p914
aVcatered
p915
aV9
p916
aVszechwan
p917
aVinches
p918
aVoffer
p919
aVbus
p920
aV6
p921
aVlanding
p922
aVsomehow
p923
aVheat
p924
aVplague
p925
aVlows
p926
aVhour/post
p927
aVmom/pop
p928
aVremoved
p929
aV.veggies
p930
aVeat
p931
aVinfo
p932
aVthrow
p933
aVsuspect
p934
aVportions
p935
aVplaces
p936
aVwish
p937
aVincase
p938
aVbounds
p939
aVus
p940
aVdifferent
p941
aVsadness
p942
aV're
p943
aVdirty
p944
aVmushy
p945
aVproblem
p946
aVpiece
p947
aVminutes
p948
aVconsumed
p949
aVgone
p950
aVsometimes
p951
aVordered
p952
aVah
p953
aVauthenticity
p954
aVentrance
p955
aV''
p956
aVimagination
p957
aVengineering
p958
aVtasty
p959
aVpromised
p960
aVsprouts
p961
aVmediocre
p962
aVhappen
p963
aVloyal
p964
aV'll
p965
aVvariety
p966
aV'vein
p967
aVdetail
p968
aV40
p969
aVnam
p970
aVtight
p971
aVnap
p972
aVbook
p973
aV5
p974
aVwitness
p975
aVevenings
p976
aVdepartment
p977
aVb/c
p978
aVpecked
p979
aVnice
p980
aVpoor
p981
aVpicture
p982
aV's
p983
aVfood..
p984
aVliving
p985
aVembracing
p986
aVupdate
p987
aVstay
p988
aVfell
p989
aVpeak
p990
aVincluded
p991
aVgloriously
p992
aV'm
p993
aVcookie-cutter
p994
aVfriends
p995
aVmeals
p996
aVgrunted
p997
aVago
p998
aVland
p999
aVlonger
p1000
aVwife
p1001
aVpseudo
p1002
aVtogether
p1003
aVmash
p1004
aVportion
p1005
aVtime
p1006
aVgrisly
p1007
aVfitchburg
p1008
aVpods
p1009
aVstick
p1010
atp1011
Rp1012
.